target datalayout = "e-m:e-p270:32:32-p271:32:32-p272:64:64-i64:64-i128:128-f80:128-n8:16:32:64-S128"
target triple = "x86_64-pc-linux-gnu"

%struct._zend_executor_globals = type { %struct._zval_struct, %struct._zval_struct, [32 x ptr], ptr, ptr, %struct._zend_array, %struct._zend_array, ptr, i32, i32, ptr, ptr, ptr, ptr, ptr, ptr, i64, ptr, ptr, i32, i32, i64, i32, i32, i32, i8, i8, %struct.zend_atomic_bool_s, %struct.zend_atomic_bool_s, ptr, i64, ptr, ptr, %struct._zend_array, %struct._zend_array, i32, i8, %struct._zval_struct, %struct._zval_struct, %struct._zend_stack, %struct._zend_stack, %struct._zend_stack, ptr, i32, i32, i64, ptr, ptr, ptr, %struct._zend_objects_store, ptr, ptr, ptr, [3 x %struct._zend_op], ptr, i8, i8, i64, i32, i32, ptr, [16 x %struct._HashTableIterator], ptr, %union._zend_function, %struct._zend_op, %struct._zend_array, i64, %struct.zend_get_gc_buffer, ptr, ptr, ptr, i64, i8, i32, ptr, ptr, i64, %struct._zend_call_stack, i64, i64, [6 x ptr] }
%struct.zend_atomic_bool_s = type { i8 }
%struct._zval_struct = type { %union._zend_value, %union.anon, %union.anon.2 }
%union._zend_value = type { i64 }
%union.anon = type { i32 }
%union.anon.2 = type { i32 }
%struct._zend_stack = type { i32, i32, i32, ptr }
%struct._zend_objects_store = type { ptr, i32, i32, i32 }
%struct._HashTableIterator = type { ptr, i32, i32 }
%union._zend_function = type { %struct._zend_op_array }
%struct._zend_op_array = type { i8, [3 x i8], i32, ptr, ptr, ptr, i32, i32, ptr, ptr, ptr, ptr, i32, i32, i32, i32, ptr, ptr, ptr, ptr, ptr, i32, i32, ptr, ptr, ptr, i32, i32, i32, i32, ptr, ptr, [6 x ptr] }
%struct._zend_op = type { ptr, %union._znode_op, %union._znode_op, %union._znode_op, i32, i32, i8, i8, i8, i8 }
%union._znode_op = type { i32 }
%struct._zend_array = type { %struct._zend_refcounted_h, %union.anon.4, i32, %union.anon.6, i32, i32, i32, i32, i64, ptr }
%struct._zend_refcounted_h = type { i32, %union.anon.3 }
%union.anon.3 = type { i32 }
%union.anon.4 = type { i32 }
%union.anon.6 = type { ptr }
%struct.zend_get_gc_buffer = type { ptr, ptr, ptr }
%struct._zend_call_stack = type { ptr, i64 }
%struct._zend_execute_data = type { ptr, ptr, ptr, ptr, %struct._zval_struct, ptr, ptr, ptr, ptr }
%struct._zend_string = type { %struct._zend_refcounted_h, i64, i64, [1 x i8] }
%struct._zend_constant = type { %struct._zval_struct, ptr }

@executor_globals = external global %struct._zend_executor_globals, align 8
@.str.2 = private unnamed_addr constant [24 x i8] c"Undefined constant \22%s\22\00", align 1
@.str.3 = private unnamed_addr constant [26 x i8] c"Constant %s is deprecated\00", align 1

; Function Attrs: nounwind uwtable
define hidden ptr @zend_jit_get_constant(ptr noundef %0, i32 noundef %1) #0 {
  %3 = alloca ptr, align 8
  %4 = alloca ptr, align 8
  %5 = alloca ptr, align 8
  %6 = alloca i32, align 4
  %7 = alloca i32, align 4
  %8 = alloca ptr, align 8
  %9 = alloca ptr, align 8
  %10 = alloca ptr, align 8
  %11 = alloca ptr, align 8
  %12 = alloca ptr, align 8
  %13 = alloca i32, align 4
  store ptr %0, ptr %12, align 8
  store i32 %1, ptr %13, align 4
  %14 = load ptr, ptr %12, align 8
  %15 = load i32, ptr %13, align 4
  store ptr %14, ptr %5, align 8
  store i32 %15, ptr %6, align 4
  store i32 0, ptr %7, align 4
  %16 = load ptr, ptr getelementptr inbounds (%struct._zend_executor_globals, ptr @executor_globals, i32 0, i32 17), align 8
  store ptr %16, ptr %8, align 8
  %17 = load ptr, ptr %8, align 8
  %18 = load ptr, ptr %17, align 8
  store ptr %18, ptr %9, align 8
  store ptr null, ptr %11, align 8
  %19 = load ptr, ptr getelementptr inbounds (%struct._zend_executor_globals, ptr @executor_globals, i32 0, i32 12), align 8
  %20 = load ptr, ptr %5, align 8
  %21 = load ptr, ptr %20, align 8
  %22 = call ptr @zend_hash_find_known_hash(ptr noundef %19, ptr noundef %21) #4
  store ptr %22, ptr %10, align 8
  %23 = load ptr, ptr %10, align 8
  %24 = icmp ne ptr %23, null
  br i1 %24, label %25, label %28

25:                                               ; preds = %2
  %26 = load ptr, ptr %10, align 8
  %27 = load ptr, ptr %26, align 8
  store ptr %27, ptr %11, align 8
  br label %46

28:                                               ; preds = %2
  %29 = load i32, ptr %6, align 4
  %30 = and i32 %29, 2048
  %31 = icmp ne i32 %30, 0
  br i1 %31, label %32, label %45

32:                                               ; preds = %28
  %33 = load ptr, ptr %5, align 8
  %34 = getelementptr inbounds %struct._zval_struct, ptr %33, i32 1
  store ptr %34, ptr %5, align 8
  %35 = load ptr, ptr getelementptr inbounds (%struct._zend_executor_globals, ptr @executor_globals, i32 0, i32 12), align 8
  %36 = load ptr, ptr %5, align 8
  %37 = load ptr, ptr %36, align 8
  %38 = call ptr @zend_hash_find_known_hash(ptr noundef %35, ptr noundef %37) #4
  store ptr %38, ptr %10, align 8
  %39 = load ptr, ptr %10, align 8
  %40 = icmp ne ptr %39, null
  br i1 %40, label %41, label %44

41:                                               ; preds = %32
  %42 = load ptr, ptr %10, align 8
  %43 = load ptr, ptr %42, align 8
  store ptr %43, ptr %11, align 8
  br label %44

44:                                               ; preds = %41, %32
  br label %45

45:                                               ; preds = %44, %28
  br label %46

46:                                               ; preds = %45, %25
  %47 = load ptr, ptr %11, align 8
  %48 = icmp ne ptr %47, null
  br i1 %48, label %85, label %49

49:                                               ; preds = %46
  %50 = load i32, ptr %7, align 4
  %51 = icmp ne i32 %50, 0
  br i1 %51, label %68, label %52

52:                                               ; preds = %49
  %53 = load ptr, ptr %9, align 8
  %54 = load ptr, ptr %9, align 8
  %55 = getelementptr inbounds %struct._zend_op, ptr %54, i32 0, i32 2
  %56 = load i32, ptr %55, align 4
  %57 = sext i32 %56 to i64
  %58 = getelementptr inbounds i8, ptr %53, i64 %57
  %59 = load ptr, ptr %58, align 8
  %60 = getelementptr inbounds %struct._zend_string, ptr %59, i32 0, i32 3
  call void (ptr, ptr, ...) @zend_throw_error(ptr noundef null, ptr noundef @.str.2, ptr noundef %60) #4
  %61 = load ptr, ptr %8, align 8
  %62 = load ptr, ptr %9, align 8
  %63 = getelementptr inbounds %struct._zend_op, ptr %62, i32 0, i32 3
  %64 = load i32, ptr %63, align 8
  %65 = sext i32 %64 to i64
  %66 = getelementptr inbounds i8, ptr %61, i64 %65
  %67 = getelementptr inbounds %struct._zval_struct, ptr %66, i32 0, i32 1
  store i32 0, ptr %67, align 8
  br label %68

68:                                               ; preds = %52, %49
  %69 = load ptr, ptr getelementptr inbounds (%struct._zend_executor_globals, ptr @executor_globals, i32 0, i32 12), align 8
  store ptr %69, ptr %3, align 8
  %70 = load ptr, ptr %3, align 8
  %71 = getelementptr inbounds %struct._zend_array, ptr %70, i32 0, i32 5
  %72 = load i32, ptr %71, align 4
  %73 = zext i32 %72 to i64
  %74 = shl i64 %73, 1
  %75 = or i64 %74, 1
  %76 = inttoptr i64 %75 to ptr
  %77 = load ptr, ptr %8, align 8
  %78 = getelementptr inbounds %struct._zend_execute_data, ptr %77, i32 0, i32 7
  %79 = load ptr, ptr %78, align 8
  %80 = load ptr, ptr %9, align 8
  %81 = getelementptr inbounds %struct._zend_op, ptr %80, i32 0, i32 4
  %82 = load i32, ptr %81, align 4
  %83 = zext i32 %82 to i64
  %84 = getelementptr inbounds i8, ptr %79, i64 %83
  store ptr %76, ptr %84, align 8
  store ptr null, ptr %4, align 8
  br label %117

85:                                               ; preds = %46
  %86 = load i32, ptr %7, align 4
  %87 = icmp ne i32 %86, 0
  br i1 %87, label %106, label %88

88:                                               ; preds = %85
  %89 = load ptr, ptr %11, align 8
  %90 = getelementptr inbounds %struct._zval_struct, ptr %89, i32 0, i32 2
  %91 = load i32, ptr %90, align 4
  %92 = and i32 %91, 255
  %93 = and i32 %92, 4
  %94 = icmp ne i32 %93, 0
  br i1 %94, label %95, label %105

95:                                               ; preds = %88
  %96 = load ptr, ptr %11, align 8
  %97 = getelementptr inbounds %struct._zend_constant, ptr %96, i32 0, i32 1
  %98 = load ptr, ptr %97, align 8
  %99 = getelementptr inbounds %struct._zend_string, ptr %98, i32 0, i32 3
  call void (i32, ptr, ...) @zend_error(i32 noundef 8192, ptr noundef @.str.3, ptr noundef %99) #4
  %100 = load ptr, ptr getelementptr inbounds (%struct._zend_executor_globals, ptr @executor_globals, i32 0, i32 50), align 8
  %101 = icmp ne ptr %100, null
  br i1 %101, label %102, label %103

102:                                              ; preds = %95
  store ptr null, ptr %4, align 8
  br label %117

103:                                              ; preds = %95
  %104 = load ptr, ptr %11, align 8
  store ptr %104, ptr %4, align 8
  br label %117

105:                                              ; preds = %88
  br label %106

106:                                              ; preds = %105, %85
  %107 = load ptr, ptr %11, align 8
  %108 = load ptr, ptr %8, align 8
  %109 = getelementptr inbounds %struct._zend_execute_data, ptr %108, i32 0, i32 7
  %110 = load ptr, ptr %109, align 8
  %111 = load ptr, ptr %9, align 8
  %112 = getelementptr inbounds %struct._zend_op, ptr %111, i32 0, i32 4
  %113 = load i32, ptr %112, align 4
  %114 = zext i32 %113 to i64
  %115 = getelementptr inbounds i8, ptr %110, i64 %114
  store ptr %107, ptr %115, align 8
  %116 = load ptr, ptr %11, align 8
  store ptr %116, ptr %4, align 8
  br label %117

117:                                              ; preds = %106, %103, %102, %68
  %118 = load ptr, ptr %4, align 8
  ret ptr %118
}