; Function Attrs: nounwind uwtable
define hidden ptr @zend_jit_get_constant(ptr nocapture noundef readonly %0, i32 noundef %1) local_unnamed_addr #0 {
  %3 = load ptr, ptr getelementptr inbounds (%struct._zend_executor_globals, ptr @executor_globals, i64 0, i32 17), align 8
  %4 = load ptr, ptr %3, align 8
  %5 = load ptr, ptr getelementptr inbounds (%struct._zend_executor_globals, ptr @executor_globals, i64 0, i32 12), align 8
  %6 = load ptr, ptr %0, align 8
  %7 = tail call ptr @zend_hash_find_known_hash(ptr noundef %5, ptr noundef %6) #6
  %.not = icmp eq ptr %7, null
  br i1 %.not, label %8, label %15

8:                                                ; preds = %2
  %9 = and i32 %1, 2048
  %.not31 = icmp eq i32 %9, 0
  br i1 %.not31, label %.thread, label %10

10:                                               ; preds = %8
  %11 = getelementptr inbounds i8, ptr %0, i64 16
  %12 = load ptr, ptr getelementptr inbounds (%struct._zend_executor_globals, ptr @executor_globals, i64 0, i32 12), align 8
  %13 = load ptr, ptr %11, align 8
  %14 = tail call ptr @zend_hash_find_known_hash(ptr noundef %12, ptr noundef %13) #6
  %.not32 = icmp eq ptr %14, null
  br i1 %.not32, label %.thread, label %15

15:                                               ; preds = %10, %2
  %.028.in = phi ptr [ %7, %2 ], [ %14, %10 ]
  %.028 = load ptr, ptr %.028.in, align 8
  %.not33 = icmp eq ptr %.028, null
  br i1 %.not33, label %.thread, label %40

.thread:                                          ; preds = %8, %10, %15
  %16 = getelementptr inbounds i8, ptr %4, i64 12
  %17 = load i32, ptr %16, align 4
  %18 = sext i32 %17 to i64
  %19 = getelementptr inbounds i8, ptr %4, i64 %18
  %20 = load ptr, ptr %19, align 8
  %21 = getelementptr inbounds i8, ptr %20, i64 24
  tail call void (ptr, ptr, ...) @zend_throw_error(ptr noundef null, ptr noundef nonnull @.str.2, ptr noundef nonnull %21) #6
  %22 = getelementptr inbounds i8, ptr %4, i64 16
  %23 = load i32, ptr %22, align 8
  %24 = sext i32 %23 to i64
  %25 = getelementptr inbounds i8, ptr %3, i64 %24
  %26 = getelementptr inbounds i8, ptr %25, i64 8
  store i32 0, ptr %26, align 8
  %27 = load ptr, ptr getelementptr inbounds (%struct._zend_executor_globals, ptr @executor_globals, i64 0, i32 12), align 8
  %28 = getelementptr inbounds i8, ptr %27, i64 28
  %29 = load i32, ptr %28, align 4
  %30 = zext i32 %29 to i64
  %31 = shl nuw nsw i64 %30, 1
  %32 = or disjoint i64 %31, 1
  %33 = inttoptr i64 %32 to ptr
  %34 = getelementptr inbounds i8, ptr %3, i64 64
  %35 = load ptr, ptr %34, align 8
  %36 = getelementptr inbounds i8, ptr %4, i64 20
  %37 = load i32, ptr %36, align 4
  %38 = zext i32 %37 to i64
  %39 = getelementptr inbounds i8, ptr %35, i64 %38
  store ptr %33, ptr %39, align 8
  br label %56

40:                                               ; preds = %15
  %41 = getelementptr inbounds i8, ptr %.028, i64 12
  %42 = load i32, ptr %41, align 4
  %43 = and i32 %42, 4
  %.not34 = icmp eq i32 %43, 0
  br i1 %.not34, label %49, label %44

44:                                               ; preds = %40
  %45 = getelementptr inbounds i8, ptr %.028, i64 16
  %46 = load ptr, ptr %45, align 8
  %47 = getelementptr inbounds i8, ptr %46, i64 24
  tail call void (i32, ptr, ...) @zend_error(i32 noundef 8192, ptr noundef nonnull @.str.3, ptr noundef nonnull %47) #6
  %48 = load ptr, ptr getelementptr inbounds (%struct._zend_executor_globals, ptr @executor_globals, i64 0, i32 50), align 8
  %.not35 = icmp eq ptr %48, null
  %.028. = select i1 %.not35, ptr %.028, ptr null
  br label %56

49:                                               ; preds = %40
  %50 = getelementptr inbounds i8, ptr %3, i64 64
  %51 = load ptr, ptr %50, align 8
  %52 = getelementptr inbounds i8, ptr %4, i64 20
  %53 = load i32, ptr %52, align 4
  %54 = zext i32 %53 to i64
  %55 = getelementptr inbounds i8, ptr %51, i64 %54
  store ptr %.028, ptr %55, align 8
  br label %56

56:                                               ; preds = %44, %49, %.thread
  %.0 = phi ptr [ %.028, %49 ], [ null, %.thread ], [ %.028., %44 ]
  ret ptr %.0
}